target datalayout = "e-m:e-p270:32:32-p271:32:32-p272:64:64-i64:64-i128:128-f80:128-n8:16:32:64-S128"
target triple = "x86_64-pc-linux-gnu"

@.str.17 = private unnamed_addr constant [25 x i8] c"../openssl/test/bntest.c\00", align 1
@.str.18 = private unnamed_addr constant [19 x i8] c"ctx = BN_CTX_new()\00", align 1
@ctx = internal global ptr null, align 8
@.str.19 = private unnamed_addr constant [9 x i8] c"test_sub\00", align 1
@.str.20 = private unnamed_addr constant [15 x i8] c"test_div_recip\00", align 1
@.str.21 = private unnamed_addr constant [27 x i8] c"test_signed_mod_replace_ab\00", align 1
@.str.22 = private unnamed_addr constant [27 x i8] c"test_signed_mod_replace_ba\00", align 1
@.str.23 = private unnamed_addr constant [9 x i8] c"test_mod\00", align 1
@.str.24 = private unnamed_addr constant [17 x i8] c"test_mod_inverse\00", align 1
@.str.25 = private unnamed_addr constant [19 x i8] c"test_mod_exp_alias\00", align 1
@.str.26 = private unnamed_addr constant [18 x i8] c"test_modexp_mont5\00", align 1
@.str.27 = private unnamed_addr constant [15 x i8] c"test_kronecker\00", align 1
@.str.28 = private unnamed_addr constant [10 x i8] c"test_rand\00", align 1
@.str.29 = private unnamed_addr constant [15 x i8] c"test_bn2padded\00", align 1
@.str.30 = private unnamed_addr constant [12 x i8] c"test_dec2bn\00", align 1
@.str.31 = private unnamed_addr constant [12 x i8] c"test_hex2bn\00", align 1
@.str.32 = private unnamed_addr constant [12 x i8] c"test_asc2bn\00", align 1
@.str.33 = private unnamed_addr constant [14 x i8] c"test_bin2zero\00", align 1
@.str.34 = private unnamed_addr constant [20 x i8] c"test_bin2bn_lengths\00", align 1
@.str.35 = private unnamed_addr constant [9 x i8] c"test_mpi\00", align 1
@.str.36 = private unnamed_addr constant [15 x i8] c"test_bn2signed\00", align 1
@.str.37 = private unnamed_addr constant [13 x i8] c"test_negzero\00", align 1
@.str.38 = private unnamed_addr constant [12 x i8] c"test_badmod\00", align 1
@.str.39 = private unnamed_addr constant [16 x i8] c"test_expmodzero\00", align 1
@.str.40 = private unnamed_addr constant [15 x i8] c"test_expmodone\00", align 1
@.str.41 = private unnamed_addr constant [16 x i8] c"test_smallprime\00", align 1
@.str.42 = private unnamed_addr constant [20 x i8] c"test_smallsafeprime\00", align 1
@.str.43 = private unnamed_addr constant [10 x i8] c"test_swap\00", align 1
@.str.44 = private unnamed_addr constant [24 x i8] c"test_ctx_consttime_flag\00", align 1
@.str.45 = private unnamed_addr constant [14 x i8] c"test_gf2m_add\00", align 1
@.str.46 = private unnamed_addr constant [14 x i8] c"test_gf2m_mod\00", align 1
@.str.47 = private unnamed_addr constant [14 x i8] c"test_gf2m_mul\00", align 1
@.str.48 = private unnamed_addr constant [14 x i8] c"test_gf2m_sqr\00", align 1
@.str.49 = private unnamed_addr constant [17 x i8] c"test_gf2m_modinv\00", align 1
@.str.50 = private unnamed_addr constant [17 x i8] c"test_gf2m_moddiv\00", align 1
@.str.51 = private unnamed_addr constant [17 x i8] c"test_gf2m_modexp\00", align 1
@.str.52 = private unnamed_addr constant [18 x i8] c"test_gf2m_modsqrt\00", align 1
@.str.53 = private unnamed_addr constant [23 x i8] c"test_gf2m_modsolvequad\00", align 1
@.str.54 = private unnamed_addr constant [14 x i8] c"test_is_prime\00", align 1
@.str.55 = private unnamed_addr constant [15 x i8] c"test_not_prime\00", align 1
@.str.56 = private unnamed_addr constant [15 x i8] c"test_gcd_prime\00", align 1
@.str.57 = private unnamed_addr constant [13 x i8] c"test_coprime\00", align 1
@.str.58 = private unnamed_addr constant [13 x i8] c"test_mod_exp\00", align 1
@.str.59 = private unnamed_addr constant [23 x i8] c"test_mod_exp_consttime\00", align 1
@.str.60 = private unnamed_addr constant [19 x i8] c"test_mod_exp2_mont\00", align 1
@.str.61 = private unnamed_addr constant [16 x i8] c"test_rand_range\00", align 1
@.str.62 = private unnamed_addr constant [15 x i8] c"run_file_tests\00", align 1

; Function Attrs: nounwind uwtable
define dso_local i32 @setup_tests() #0 {
  %1 = alloca i32, align 4
  %2 = alloca i32, align 4
  %3 = alloca i32, align 4
  %4 = alloca i32, align 4
  %5 = alloca i32, align 4
  call void @llvm.lifetime.start.p0(i64 4, ptr %2) #7
  call void @llvm.lifetime.start.p0(i64 4, ptr %3) #7
  call void @llvm.lifetime.start.p0(i64 4, ptr %4) #7
  store i32 0, ptr %4, align 4, !tbaa !4
  br label %6

6:                                                ; preds = %15, %0
  %7 = call i32 @opt_next()
  store i32 %7, ptr %2, align 4, !tbaa !4
  %8 = icmp ne i32 %7, 0
  br i1 %8, label %9, label %16

9:                                                ; preds = %6
  %10 = load i32, ptr %2, align 4, !tbaa !4
  switch i32 %10, label %13 [
    i32 1, label %11
    i32 500, label %12
    i32 501, label %12
    i32 502, label %12
    i32 503, label %12
    i32 504, label %12
    i32 505, label %12
    i32 -1, label %14
  ]

11:                                               ; preds = %9
  store i32 1, ptr %4, align 4, !tbaa !4
  br label %15

12:                                               ; preds = %9, %9, %9, %9, %9, %9
  br label %15

13:                                               ; preds = %9
  br label %14

14:                                               ; preds = %9, %13
  store i32 0, ptr %1, align 4
  store i32 1, ptr %5, align 4
  br label %34

15:                                               ; preds = %12, %11
  br label %6, !llvm.loop !8

16:                                               ; preds = %6
  %17 = call i64 @test_get_argument_count()
  %18 = trunc i64 %17 to i32
  store i32 %18, ptr %3, align 4, !tbaa !4
  %19 = call ptr @BN_CTX_new()
  store ptr %19, ptr @ctx, align 8, !tbaa !10
  %20 = call i32 @test_ptr(ptr noundef @.str.17, i32 noundef 3377, ptr noundef @.str.18, ptr noundef %19)
  %21 = icmp ne i32 %20, 0
  br i1 %21, label %23, label %22

22:                                               ; preds = %16
  store i32 0, ptr %1, align 4
  store i32 1, ptr %5, align 4
  br label %34

23:                                               ; preds = %16
  %24 = load i32, ptr %3, align 4, !tbaa !4
  %25 = icmp eq i32 %24, 0
  br i1 %25, label %26, label %31

26:                                               ; preds = %23
  call void @add_test(ptr noundef @.str.19, ptr noundef @test_sub)
  call void @add_test(ptr noundef @.str.20, ptr noundef @test_div_recip)
  call void @add_all_tests(ptr noundef @.str.21, ptr noundef @test_signed_mod_replace_ab, i32 noundef 4, i32 noundef 1)
  call void @add_all_tests(ptr noundef @.str.22, ptr noundef @test_signed_mod_replace_ba, i32 noundef 4, i32 noundef 1)
  call void @add_test(ptr noundef @.str.23, ptr noundef @test_mod)
  call void @add_test(ptr noundef @.str.24, ptr noundef @test_mod_inverse)
  call void @add_all_tests(ptr noundef @.str.25, ptr noundef @test_mod_exp_alias, i32 noundef 2, i32 noundef 1)
  call void @add_test(ptr noundef @.str.26, ptr noundef @test_modexp_mont5)
  call void @add_test(ptr noundef @.str.27, ptr noundef @test_kronecker)
  call void @add_test(ptr noundef @.str.28, ptr noundef @test_rand)
  call void @add_test(ptr noundef @.str.29, ptr noundef @test_bn2padded)
  call void @add_test(ptr noundef @.str.30, ptr noundef @test_dec2bn)
  call void @add_test(ptr noundef @.str.31, ptr noundef @test_hex2bn)
  call void @add_test(ptr noundef @.str.32, ptr noundef @test_asc2bn)
  call void @add_test(ptr noundef @.str.33, ptr noundef @test_bin2zero)
  call void @add_test(ptr noundef @.str.34, ptr noundef @test_bin2bn_lengths)
  call void @add_all_tests(ptr noundef @.str.35, ptr noundef @test_mpi, i32 noundef 6, i32 noundef 1)
  call void @add_all_tests(ptr noundef @.str.36, ptr noundef @test_bn2signed, i32 noundef 43, i32 noundef 1)
  call void @add_test(ptr noundef @.str.37, ptr noundef @test_negzero)
  call void @add_test(ptr noundef @.str.38, ptr noundef @test_badmod)
  call void @add_test(ptr noundef @.str.39, ptr noundef @test_expmodzero)
  call void @add_test(ptr noundef @.str.40, ptr noundef @test_expmodone)
  call void @add_all_tests(ptr noundef @.str.41, ptr noundef @test_smallprime, i32 noundef 16, i32 noundef 1)
  call void @add_all_tests(ptr noundef @.str.42, ptr noundef @test_smallsafeprime, i32 noundef 16, i32 noundef 1)
  call void @add_test(ptr noundef @.str.43, ptr noundef @test_swap)
  call void @add_test(ptr noundef @.str.44, ptr noundef @test_ctx_consttime_flag)
  call void @add_test(ptr noundef @.str.45, ptr noundef @test_gf2m_add)
  call void @add_test(ptr noundef @.str.46, ptr noundef @test_gf2m_mod)
  call void @add_test(ptr noundef @.str.47, ptr noundef @test_gf2m_mul)
  call void @add_test(ptr noundef @.str.48, ptr noundef @test_gf2m_sqr)
  call void @add_test(ptr noundef @.str.49, ptr noundef @test_gf2m_modinv)
  call void @add_test(ptr noundef @.str.50, ptr noundef @test_gf2m_moddiv)
  call void @add_test(ptr noundef @.str.51, ptr noundef @test_gf2m_modexp)
  call void @add_test(ptr noundef @.str.52, ptr noundef @test_gf2m_modsqrt)
  call void @add_test(ptr noundef @.str.53, ptr noundef @test_gf2m_modsolvequad)
  call void @add_all_tests(ptr noundef @.str.54, ptr noundef @test_is_prime, i32 noundef 5, i32 noundef 1)
  call void @add_all_tests(ptr noundef @.str.55, ptr noundef @test_not_prime, i32 noundef 4, i32 noundef 1)
  call void @add_test(ptr noundef @.str.56, ptr noundef @test_gcd_prime)
  call void @add_test(ptr noundef @.str.57, ptr noundef @test_coprime)
  call void @add_all_tests(ptr noundef @.str.58, ptr noundef @test_mod_exp, i32 noundef 16, i32 noundef 1)
  call void @add_all_tests(ptr noundef @.str.59, ptr noundef @test_mod_exp_consttime, i32 noundef 16, i32 noundef 1)
  call void @add_test(ptr noundef @.str.60, ptr noundef @test_mod_exp2_mont)
  %27 = load i32, ptr %4, align 4, !tbaa !4
  %28 = icmp ne i32 %27, 0
  br i1 %28, label %29, label %30

29:                                               ; preds = %26
  call void @add_test(ptr noundef @.str.61, ptr noundef @test_rand_range)
  br label %30

30:                                               ; preds = %29, %26
  br label %33

31:                                               ; preds = %23
  %32 = load i32, ptr %3, align 4, !tbaa !4
  call void @add_all_tests(ptr noundef @.str.62, ptr noundef @run_file_tests, i32 noundef %32, i32 noundef 1)
  br label %33

33:                                               ; preds = %31, %30
  store i32 1, ptr %1, align 4
  store i32 1, ptr %5, align 4
  br label %34

34:                                               ; preds = %33, %22, %14
  call void @llvm.lifetime.end.p0(i64 4, ptr %4) #7
  call void @llvm.lifetime.end.p0(i64 4, ptr %3) #7
  call void @llvm.lifetime.end.p0(i64 4, ptr %2) #7
  %35 = load i32, ptr %1, align 4
  ret i32 %35
}