; Function Attrs: nounwind uwtable
define dso_local range(i32 0, 2) i32 @setup_tests() local_unnamed_addr #1 {
  br label %.outer

.outer:                                           ; preds = %1, %0
  %.not9 = phi i1 [ true, %0 ], [ false, %1 ]
  br label %1

1:                                                ; preds = %.backedge, %.outer
  %2 = tail call i32 @opt_next() #8
  switch i32 %2, label %.loopexit [
    i32 0, label %3
    i32 1, label %.outer
    i32 500, label %.backedge
    i32 501, label %.backedge
    i32 502, label %.backedge
    i32 503, label %.backedge
    i32 504, label %.backedge
    i32 505, label %.backedge
  ], !llvm.loop !4

.backedge:                                        ; preds = %1, %1, %1, %1, %1, %1
  br label %1, !llvm.loop !4

3:                                                ; preds = %1
  %4 = tail call i64 @test_get_argument_count() #8
  %5 = trunc i64 %4 to i32
  %6 = tail call ptr @BN_CTX_new() #8
  store ptr %6, ptr @ctx, align 8, !tbaa !6
  %7 = tail call i32 @test_ptr(ptr noundef nonnull @.str.17, i32 noundef 3377, ptr noundef nonnull @.str.18, ptr noundef %6) #8
  %.not8 = icmp eq i32 %7, 0
  br i1 %.not8, label %.loopexit, label %8

8:                                                ; preds = %3
  %9 = icmp eq i32 %5, 0
  br i1 %9, label %10, label %12

10:                                               ; preds = %8
  tail call void @add_test(ptr noundef nonnull @.str.19, ptr noundef nonnull @test_sub) #8
  tail call void @add_test(ptr noundef nonnull @.str.20, ptr noundef nonnull @test_div_recip) #8
  tail call void @add_all_tests(ptr noundef nonnull @.str.21, ptr noundef nonnull @test_signed_mod_replace_ab, i32 noundef 4, i32 noundef 1) #8
  tail call void @add_all_tests(ptr noundef nonnull @.str.22, ptr noundef nonnull @test_signed_mod_replace_ba, i32 noundef 4, i32 noundef 1) #8
  tail call void @add_test(ptr noundef nonnull @.str.23, ptr noundef nonnull @test_mod) #8
  tail call void @add_test(ptr noundef nonnull @.str.24, ptr noundef nonnull @test_mod_inverse) #8
  tail call void @add_all_tests(ptr noundef nonnull @.str.25, ptr noundef nonnull @test_mod_exp_alias, i32 noundef 2, i32 noundef 1) #8
  tail call void @add_test(ptr noundef nonnull @.str.26, ptr noundef nonnull @test_modexp_mont5) #8
  tail call void @add_test(ptr noundef nonnull @.str.27, ptr noundef nonnull @test_kronecker) #8
  tail call void @add_test(ptr noundef nonnull @.str.28, ptr noundef nonnull @test_rand) #8
  tail call void @add_test(ptr noundef nonnull @.str.29, ptr noundef nonnull @test_bn2padded) #8
  tail call void @add_test(ptr noundef nonnull @.str.30, ptr noundef nonnull @test_dec2bn) #8
  tail call void @add_test(ptr noundef nonnull @.str.31, ptr noundef nonnull @test_hex2bn) #8
  tail call void @add_test(ptr noundef nonnull @.str.32, ptr noundef nonnull @test_asc2bn) #8
  tail call void @add_test(ptr noundef nonnull @.str.33, ptr noundef nonnull @test_bin2zero) #8
  tail call void @add_test(ptr noundef nonnull @.str.34, ptr noundef nonnull @test_bin2bn_lengths) #8
  tail call void @add_all_tests(ptr noundef nonnull @.str.35, ptr noundef nonnull @test_mpi, i32 noundef 6, i32 noundef 1) #8
  tail call void @add_all_tests(ptr noundef nonnull @.str.36, ptr noundef nonnull @test_bn2signed, i32 noundef 43, i32 noundef 1) #8
  tail call void @add_test(ptr noundef nonnull @.str.37, ptr noundef nonnull @test_negzero) #8
  tail call void @add_test(ptr noundef nonnull @.str.38, ptr noundef nonnull @test_badmod) #8
  tail call void @add_test(ptr noundef nonnull @.str.39, ptr noundef nonnull @test_expmodzero) #8
  tail call void @add_test(ptr noundef nonnull @.str.40, ptr noundef nonnull @test_expmodone) #8
  tail call void @add_all_tests(ptr noundef nonnull @.str.41, ptr noundef nonnull @test_smallprime, i32 noundef 16, i32 noundef 1) #8
  tail call void @add_all_tests(ptr noundef nonnull @.str.42, ptr noundef nonnull @test_smallsafeprime, i32 noundef 16, i32 noundef 1) #8
  tail call void @add_test(ptr noundef nonnull @.str.43, ptr noundef nonnull @test_swap) #8
  tail call void @add_test(ptr noundef nonnull @.str.44, ptr noundef nonnull @test_ctx_consttime_flag) #8
  tail call void @add_test(ptr noundef nonnull @.str.45, ptr noundef nonnull @test_gf2m_add) #8
  tail call void @add_test(ptr noundef nonnull @.str.46, ptr noundef nonnull @test_gf2m_mod) #8
  tail call void @add_test(ptr noundef nonnull @.str.47, ptr noundef nonnull @test_gf2m_mul) #8
  tail call void @add_test(ptr noundef nonnull @.str.48, ptr noundef nonnull @test_gf2m_sqr) #8
  tail call void @add_test(ptr noundef nonnull @.str.49, ptr noundef nonnull @test_gf2m_modinv) #8
  tail call void @add_test(ptr noundef nonnull @.str.50, ptr noundef nonnull @test_gf2m_moddiv) #8
  tail call void @add_test(ptr noundef nonnull @.str.51, ptr noundef nonnull @test_gf2m_modexp) #8
  tail call void @add_test(ptr noundef nonnull @.str.52, ptr noundef nonnull @test_gf2m_modsqrt) #8
  tail call void @add_test(ptr noundef nonnull @.str.53, ptr noundef nonnull @test_gf2m_modsolvequad) #8
  tail call void @add_all_tests(ptr noundef nonnull @.str.54, ptr noundef nonnull @test_is_prime, i32 noundef 5, i32 noundef 1) #8
  tail call void @add_all_tests(ptr noundef nonnull @.str.55, ptr noundef nonnull @test_not_prime, i32 noundef 4, i32 noundef 1) #8
  tail call void @add_test(ptr noundef nonnull @.str.56, ptr noundef nonnull @test_gcd_prime) #8
  tail call void @add_test(ptr noundef nonnull @.str.57, ptr noundef nonnull @test_coprime) #8
  tail call void @add_all_tests(ptr noundef nonnull @.str.58, ptr noundef nonnull @test_mod_exp, i32 noundef 16, i32 noundef 1) #8
  tail call void @add_all_tests(ptr noundef nonnull @.str.59, ptr noundef nonnull @test_mod_exp_consttime, i32 noundef 16, i32 noundef 1) #8
  tail call void @add_test(ptr noundef nonnull @.str.60, ptr noundef nonnull @test_mod_exp2_mont) #8
  br i1 %.not9, label %.loopexit, label %11

11:                                               ; preds = %10
  tail call void @add_test(ptr noundef nonnull @.str.61, ptr noundef nonnull @test_rand_range) #8
  br label %.loopexit

12:                                               ; preds = %8
  tail call void @add_all_tests(ptr noundef nonnull @.str.62, ptr noundef nonnull @run_file_tests, i32 noundef %5, i32 noundef 1) #8
  br label %.loopexit

.loopexit:                                        ; preds = %1, %12, %11, %10, %3
  %.05 = phi i32 [ 0, %3 ], [ 1, %10 ], [ 1, %11 ], [ 1, %12 ], [ 0, %1 ]
  ret i32 %.05
}